target datalayout = "e-m:e-p270:32:32-p271:32:32-p272:64:64-i64:64-i128:128-f80:128-n8:16:32:64-S128"
target triple = "x86_64-pc-linux-gnu"

%"struct.duckdb_zstd::rawSeqStore_t" = type { ptr, i64, i64, i64, i64 }
%"struct.duckdb_zstd::ZSTD_optLdm_t" = type { %"struct.duckdb_zstd::rawSeqStore_t", i32, i32, i32 }
%"struct.duckdb_zstd::ZSTD_match_t" = type { i32, i32 }
%"struct.duckdb_zstd::rawSeq" = type { i32, i32, i32 }

; Function Attrs: mustprogress nounwind uwtable
define internal void @_ZN11duckdb_zstdL25ZSTD_optLdm_maybeAddMatchEPNS_12ZSTD_match_tEPjPKNS_13ZSTD_optLdm_tEj(ptr noundef %0, ptr noundef %1, ptr noundef %2, i32 noundef %3) #5 {
  %5 = alloca ptr, align 8
  %6 = alloca ptr, align 8
  %7 = alloca ptr, align 8
  %8 = alloca i32, align 4
  %9 = alloca i32, align 4
  %10 = alloca i32, align 4
  %11 = alloca i32, align 4
  %12 = alloca i32, align 4
  store ptr %0, ptr %5, align 8, !tbaa !28
  store ptr %1, ptr %6, align 8, !tbaa !29
  store ptr %2, ptr %7, align 8, !tbaa !28
  store i32 %3, ptr %8, align 4, !tbaa !21
  call void @llvm.lifetime.start.p0(i64 4, ptr %9) #13
  %13 = load i32, ptr %8, align 4, !tbaa !21
  %14 = load ptr, ptr %7, align 8, !tbaa !28
  %15 = getelementptr inbounds nuw %"struct.duckdb_zstd::ZSTD_optLdm_t", ptr %14, i32 0, i32 1
  %16 = load i32, ptr %15, align 8, !tbaa !61
  %17 = sub i32 %13, %16
  store i32 %17, ptr %9, align 4, !tbaa !21
  call void @llvm.lifetime.start.p0(i64 4, ptr %10) #13
  %18 = load ptr, ptr %7, align 8, !tbaa !28
  %19 = getelementptr inbounds nuw %"struct.duckdb_zstd::ZSTD_optLdm_t", ptr %18, i32 0, i32 2
  %20 = load i32, ptr %19, align 4, !tbaa !62
  %21 = load ptr, ptr %7, align 8, !tbaa !28
  %22 = getelementptr inbounds nuw %"struct.duckdb_zstd::ZSTD_optLdm_t", ptr %21, i32 0, i32 1
  %23 = load i32, ptr %22, align 8, !tbaa !61
  %24 = sub i32 %20, %23
  %25 = load i32, ptr %9, align 4, !tbaa !21
  %26 = sub i32 %24, %25
  store i32 %26, ptr %10, align 4, !tbaa !21
  %27 = load i32, ptr %8, align 4, !tbaa !21
  %28 = load ptr, ptr %7, align 8, !tbaa !28
  %29 = getelementptr inbounds nuw %"struct.duckdb_zstd::ZSTD_optLdm_t", ptr %28, i32 0, i32 1
  %30 = load i32, ptr %29, align 8, !tbaa !61
  %31 = icmp ult i32 %27, %30
  br i1 %31, label %41, label %32

32:                                               ; preds = %4
  %33 = load i32, ptr %8, align 4, !tbaa !21
  %34 = load ptr, ptr %7, align 8, !tbaa !28
  %35 = getelementptr inbounds nuw %"struct.duckdb_zstd::ZSTD_optLdm_t", ptr %34, i32 0, i32 2
  %36 = load i32, ptr %35, align 4, !tbaa !62
  %37 = icmp uge i32 %33, %36
  br i1 %37, label %41, label %38

38:                                               ; preds = %32
  %39 = load i32, ptr %10, align 4, !tbaa !21
  %40 = icmp ult i32 %39, 3
  br i1 %40, label %41, label %42

41:                                               ; preds = %38, %32, %4
  store i32 1, ptr %11, align 4
  br label %87

42:                                               ; preds = %38
  %43 = load ptr, ptr %6, align 8, !tbaa !29
  %44 = load i32, ptr %43, align 4, !tbaa !21
  %45 = icmp eq i32 %44, 0
  br i1 %45, label %61, label %46

46:                                               ; preds = %42
  %47 = load i32, ptr %10, align 4, !tbaa !21
  %48 = load ptr, ptr %5, align 8, !tbaa !28
  %49 = load ptr, ptr %6, align 8, !tbaa !29
  %50 = load i32, ptr %49, align 4, !tbaa !21
  %51 = sub i32 %50, 1
  %52 = zext i32 %51 to i64
  %53 = getelementptr inbounds nuw %"struct.duckdb_zstd::ZSTD_match_t", ptr %48, i64 %52
  %54 = getelementptr inbounds nuw %"struct.duckdb_zstd::ZSTD_match_t", ptr %53, i32 0, i32 1
  %55 = load i32, ptr %54, align 4, !tbaa !68
  %56 = icmp ugt i32 %47, %55
  br i1 %56, label %57, label %86

57:                                               ; preds = %46
  %58 = load ptr, ptr %6, align 8, !tbaa !29
  %59 = load i32, ptr %58, align 4, !tbaa !21
  %60 = icmp ult i32 %59, 4096
  br i1 %60, label %61, label %86

61:                                               ; preds = %57, %42
  call void @llvm.lifetime.start.p0(i64 4, ptr %12) #13
  %62 = load ptr, ptr %7, align 8, !tbaa !28
  %63 = getelementptr inbounds nuw %"struct.duckdb_zstd::ZSTD_optLdm_t", ptr %62, i32 0, i32 3
  %64 = load i32, ptr %63, align 8, !tbaa !58
  %65 = add i32 %64, 3
  store i32 %65, ptr %12, align 4, !tbaa !21
  br label %66

66:                                               ; preds = %61
  br label %67

67:                                               ; preds = %66
  br label %68

68:                                               ; preds = %67
  %69 = load i32, ptr %10, align 4, !tbaa !21
  %70 = load ptr, ptr %5, align 8, !tbaa !28
  %71 = load ptr, ptr %6, align 8, !tbaa !29
  %72 = load i32, ptr %71, align 4, !tbaa !21
  %73 = zext i32 %72 to i64
  %74 = getelementptr inbounds nuw %"struct.duckdb_zstd::ZSTD_match_t", ptr %70, i64 %73
  %75 = getelementptr inbounds nuw %"struct.duckdb_zstd::ZSTD_match_t", ptr %74, i32 0, i32 1
  store i32 %69, ptr %75, align 4, !tbaa !68
  %76 = load i32, ptr %12, align 4, !tbaa !21
  %77 = load ptr, ptr %5, align 8, !tbaa !28
  %78 = load ptr, ptr %6, align 8, !tbaa !29
  %79 = load i32, ptr %78, align 4, !tbaa !21
  %80 = zext i32 %79 to i64
  %81 = getelementptr inbounds nuw %"struct.duckdb_zstd::ZSTD_match_t", ptr %77, i64 %80
  %82 = getelementptr inbounds nuw %"struct.duckdb_zstd::ZSTD_match_t", ptr %81, i32 0, i32 0
  store i32 %76, ptr %82, align 4, !tbaa !70
  %83 = load ptr, ptr %6, align 8, !tbaa !29
  %84 = load i32, ptr %83, align 4, !tbaa !21
  %85 = add i32 %84, 1
  store i32 %85, ptr %83, align 4, !tbaa !21
  call void @llvm.lifetime.end.p0(i64 4, ptr %12) #13
  br label %86

86:                                               ; preds = %68, %57, %46
  store i32 0, ptr %11, align 4
  br label %87

87:                                               ; preds = %86, %41
  call void @llvm.lifetime.end.p0(i64 4, ptr %10) #13
  call void @llvm.lifetime.end.p0(i64 4, ptr %9) #13
  %88 = load i32, ptr %11, align 4
  switch i32 %88, label %90 [
    i32 0, label %89
    i32 1, label %89
  ]

89:                                               ; preds = %87, %87
  ret void

90:                                               ; preds = %87
  unreachable
}

; Function Attrs: mustprogress nounwind uwtable
define internal void @_ZN11duckdb_zstdL32ZSTD_optLdm_skipRawSeqStoreBytesEPNS_13rawSeqStore_tEm(ptr noundef %0, i64 noundef %1) #5 {
  %3 = alloca ptr, align 8
  %4 = alloca i64, align 8
  %5 = alloca i32, align 4
  %6 = alloca %"struct.duckdb_zstd::rawSeq", align 4
  %7 = alloca i32, align 4
  store ptr %0, ptr %3, align 8, !tbaa !28
  store i64 %1, ptr %4, align 8, !tbaa !30
  call void @llvm.lifetime.start.p0(i64 4, ptr %5) #13
  %8 = load ptr, ptr %3, align 8, !tbaa !28
  %9 = getelementptr inbounds nuw %"struct.duckdb_zstd::rawSeqStore_t", ptr %8, i32 0, i32 2
  %10 = load i64, ptr %9, align 8, !tbaa !135
  %11 = load i64, ptr %4, align 8, !tbaa !30
  %12 = add i64 %10, %11
  %13 = trunc i64 %12 to i32
  store i32 %13, ptr %5, align 4, !tbaa !21
  br label %14

14:                                               ; preds = %62, %2
  %15 = load i32, ptr %5, align 4, !tbaa !21
  %16 = icmp ne i32 %15, 0
  br i1 %16, label %17, label %25

17:                                               ; preds = %14
  %18 = load ptr, ptr %3, align 8, !tbaa !28
  %19 = getelementptr inbounds nuw %"struct.duckdb_zstd::rawSeqStore_t", ptr %18, i32 0, i32 1
  %20 = load i64, ptr %19, align 8, !tbaa !136
  %21 = load ptr, ptr %3, align 8, !tbaa !28
  %22 = getelementptr inbounds nuw %"struct.duckdb_zstd::rawSeqStore_t", ptr %21, i32 0, i32 3
  %23 = load i64, ptr %22, align 8, !tbaa !137
  %24 = icmp ult i64 %20, %23
  br label %25

25:                                               ; preds = %17, %14
  %26 = phi i1 [ false, %14 ], [ %24, %17 ]
  br i1 %26, label %27, label %63

27:                                               ; preds = %25
  call void @llvm.lifetime.start.p0(i64 12, ptr %6) #13
  %28 = load ptr, ptr %3, align 8, !tbaa !28
  %29 = getelementptr inbounds nuw %"struct.duckdb_zstd::rawSeqStore_t", ptr %28, i32 0, i32 0
  %30 = load ptr, ptr %29, align 8, !tbaa !138
  %31 = load ptr, ptr %3, align 8, !tbaa !28
  %32 = getelementptr inbounds nuw %"struct.duckdb_zstd::rawSeqStore_t", ptr %31, i32 0, i32 1
  %33 = load i64, ptr %32, align 8, !tbaa !136
  %34 = getelementptr inbounds nuw %"struct.duckdb_zstd::rawSeq", ptr %30, i64 %33
  call void @llvm.memcpy.p0.p0.i64(ptr align 4 %6, ptr align 4 %34, i64 12, i1 false), !tbaa.struct !85
  %35 = load i32, ptr %5, align 4, !tbaa !21
  %36 = getelementptr inbounds nuw %"struct.duckdb_zstd::rawSeq", ptr %6, i32 0, i32 1
  %37 = load i32, ptr %36, align 4, !tbaa !87
  %38 = getelementptr inbounds nuw %"struct.duckdb_zstd::rawSeq", ptr %6, i32 0, i32 2
  %39 = load i32, ptr %38, align 4, !tbaa !89
  %40 = add i32 %37, %39
  %41 = icmp uge i32 %35, %40
  br i1 %41, label %42, label %54

42:                                               ; preds = %27
  %43 = getelementptr inbounds nuw %"struct.duckdb_zstd::rawSeq", ptr %6, i32 0, i32 1
  %44 = load i32, ptr %43, align 4, !tbaa !87
  %45 = getelementptr inbounds nuw %"struct.duckdb_zstd::rawSeq", ptr %6, i32 0, i32 2
  %46 = load i32, ptr %45, align 4, !tbaa !89
  %47 = add i32 %44, %46
  %48 = load i32, ptr %5, align 4, !tbaa !21
  %49 = sub i32 %48, %47
  store i32 %49, ptr %5, align 4, !tbaa !21
  %50 = load ptr, ptr %3, align 8, !tbaa !28
  %51 = getelementptr inbounds nuw %"struct.duckdb_zstd::rawSeqStore_t", ptr %50, i32 0, i32 1
  %52 = load i64, ptr %51, align 8, !tbaa !136
  %53 = add i64 %52, 1
  store i64 %53, ptr %51, align 8, !tbaa !136
  br label %59

54:                                               ; preds = %27
  %55 = load i32, ptr %5, align 4, !tbaa !21
  %56 = zext i32 %55 to i64
  %57 = load ptr, ptr %3, align 8, !tbaa !28
  %58 = getelementptr inbounds nuw %"struct.duckdb_zstd::rawSeqStore_t", ptr %57, i32 0, i32 2
  store i64 %56, ptr %58, align 8, !tbaa !135
  store i32 3, ptr %7, align 4
  br label %60

59:                                               ; preds = %42
  store i32 0, ptr %7, align 4
  br label %60

60:                                               ; preds = %59, %54
  call void @llvm.lifetime.end.p0(i64 12, ptr %6) #13
  %61 = load i32, ptr %7, align 4
  switch i32 %61, label %78 [
    i32 0, label %62
    i32 3, label %63
  ]

62:                                               ; preds = %60
  br label %14, !llvm.loop !139

63:                                               ; preds = %60, %25
  %64 = load i32, ptr %5, align 4, !tbaa !21
  %65 = icmp eq i32 %64, 0
  br i1 %65, label %74, label %66

66:                                               ; preds = %63
  %67 = load ptr, ptr %3, align 8, !tbaa !28
  %68 = getelementptr inbounds nuw %"struct.duckdb_zstd::rawSeqStore_t", ptr %67, i32 0, i32 1
  %69 = load i64, ptr %68, align 8, !tbaa !136
  %70 = load ptr, ptr %3, align 8, !tbaa !28
  %71 = getelementptr inbounds nuw %"struct.duckdb_zstd::rawSeqStore_t", ptr %70, i32 0, i32 3
  %72 = load i64, ptr %71, align 8, !tbaa !137
  %73 = icmp eq i64 %69, %72
  br i1 %73, label %74, label %77

74:                                               ; preds = %66, %63
  %75 = load ptr, ptr %3, align 8, !tbaa !28
  %76 = getelementptr inbounds nuw %"struct.duckdb_zstd::rawSeqStore_t", ptr %75, i32 0, i32 2
  store i64 0, ptr %76, align 8, !tbaa !135
  br label %77

77:                                               ; preds = %74, %66
  call void @llvm.lifetime.end.p0(i64 4, ptr %5) #13
  ret void

78:                                               ; preds = %60
  unreachable
}

; Function Attrs: mustprogress uwtable
define internal void @_ZN11duckdb_zstdL33ZSTD_optLdm_processMatchCandidateEPNS_13ZSTD_optLdm_tEPNS_12ZSTD_match_tEPjjj(ptr noundef %0, ptr noundef %1, ptr noundef %2, i32 noundef %3, i32 noundef %4) #0 {
  %6 = alloca ptr, align 8
  %7 = alloca ptr, align 8
  %8 = alloca ptr, align 8
  %9 = alloca i32, align 4
  %10 = alloca i32, align 4
  %11 = alloca i32, align 4
  store ptr %0, ptr %6, align 8, !tbaa !28
  store ptr %1, ptr %7, align 8, !tbaa !28
  store ptr %2, ptr %8, align 8, !tbaa !29
  store i32 %3, ptr %9, align 4, !tbaa !21
  store i32 %4, ptr %10, align 4, !tbaa !21
  %12 = load ptr, ptr %6, align 8, !tbaa !28
  %13 = getelementptr inbounds nuw %"struct.duckdb_zstd::ZSTD_optLdm_t", ptr %12, i32 0, i32 0
  %14 = getelementptr inbounds nuw %"struct.duckdb_zstd::rawSeqStore_t", ptr %13, i32 0, i32 3
  %15 = load i64, ptr %14, align 8, !tbaa !82
  %16 = icmp eq i64 %15, 0
  br i1 %16, label %27, label %17

17:                                               ; preds = %5
  %18 = load ptr, ptr %6, align 8, !tbaa !28
  %19 = getelementptr inbounds nuw %"struct.duckdb_zstd::ZSTD_optLdm_t", ptr %18, i32 0, i32 0
  %20 = getelementptr inbounds nuw %"struct.duckdb_zstd::rawSeqStore_t", ptr %19, i32 0, i32 1
  %21 = load i64, ptr %20, align 8, !tbaa !83
  %22 = load ptr, ptr %6, align 8, !tbaa !28
  %23 = getelementptr inbounds nuw %"struct.duckdb_zstd::ZSTD_optLdm_t", ptr %22, i32 0, i32 0
  %24 = getelementptr inbounds nuw %"struct.duckdb_zstd::rawSeqStore_t", ptr %23, i32 0, i32 3
  %25 = load i64, ptr %24, align 8, !tbaa !82
  %26 = icmp uge i64 %21, %25
  br i1 %26, label %27, label %28

27:                                               ; preds = %17, %5
  br label %59

28:                                               ; preds = %17
  %29 = load i32, ptr %9, align 4, !tbaa !21
  %30 = load ptr, ptr %6, align 8, !tbaa !28
  %31 = getelementptr inbounds nuw %"struct.duckdb_zstd::ZSTD_optLdm_t", ptr %30, i32 0, i32 2
  %32 = load i32, ptr %31, align 4, !tbaa !62
  %33 = icmp uge i32 %29, %32
  br i1 %33, label %34, label %54

34:                                               ; preds = %28
  %35 = load i32, ptr %9, align 4, !tbaa !21
  %36 = load ptr, ptr %6, align 8, !tbaa !28
  %37 = getelementptr inbounds nuw %"struct.duckdb_zstd::ZSTD_optLdm_t", ptr %36, i32 0, i32 2
  %38 = load i32, ptr %37, align 4, !tbaa !62
  %39 = icmp ugt i32 %35, %38
  br i1 %39, label %40, label %50

40:                                               ; preds = %34
  call void @llvm.lifetime.start.p0(i64 4, ptr %11) #13
  %41 = load i32, ptr %9, align 4, !tbaa !21
  %42 = load ptr, ptr %6, align 8, !tbaa !28
  %43 = getelementptr inbounds nuw %"struct.duckdb_zstd::ZSTD_optLdm_t", ptr %42, i32 0, i32 2
  %44 = load i32, ptr %43, align 4, !tbaa !62
  %45 = sub i32 %41, %44
  store i32 %45, ptr %11, align 4, !tbaa !21
  %46 = load ptr, ptr %6, align 8, !tbaa !28
  %47 = getelementptr inbounds nuw %"struct.duckdb_zstd::ZSTD_optLdm_t", ptr %46, i32 0, i32 0
  %48 = load i32, ptr %11, align 4, !tbaa !21
  %49 = zext i32 %48 to i64
  call void @_ZN11duckdb_zstdL32ZSTD_optLdm_skipRawSeqStoreBytesEPNS_13rawSeqStore_tEm(ptr noundef %47, i64 noundef %49)
  call void @llvm.lifetime.end.p0(i64 4, ptr %11) #13
  br label %50

50:                                               ; preds = %40, %34
  %51 = load ptr, ptr %6, align 8, !tbaa !28
  %52 = load i32, ptr %9, align 4, !tbaa !21
  %53 = load i32, ptr %10, align 4, !tbaa !21
  call void @_ZN11duckdb_zstdL38ZSTD_opt_getNextMatchAndUpdateSeqStoreEPNS_13ZSTD_optLdm_tEjj(ptr noundef %51, i32 noundef %52, i32 noundef %53)
  br label %54

54:                                               ; preds = %50, %28
  %55 = load ptr, ptr %7, align 8, !tbaa !28
  %56 = load ptr, ptr %8, align 8, !tbaa !29
  %57 = load ptr, ptr %6, align 8, !tbaa !28
  %58 = load i32, ptr %9, align 4, !tbaa !21
  call void @_ZN11duckdb_zstdL25ZSTD_optLdm_maybeAddMatchEPNS_12ZSTD_match_tEPjPKNS_13ZSTD_optLdm_tEj(ptr noundef %55, ptr noundef %56, ptr noundef %57, i32 noundef %58)
  br label %59

59:                                               ; preds = %54, %27
  ret void
}