; Function Attrs: mustprogress nofree norecurse nosync nounwind memory(read, argmem: readwrite, inaccessiblemem: none) uwtable
define internal fastcc void @_ZN11duckdb_zstdL33ZSTD_optLdm_processMatchCandidateEPNS_13ZSTD_optLdm_tEPNS_12ZSTD_match_tEPjjj(ptr noundef nonnull captures(none) %0, ptr noundef captures(none) %1, ptr noundef nonnull captures(none) %2, i32 noundef %3, i32 noundef %4) unnamed_addr #8 {
  %6 = getelementptr inbounds nuw i8, ptr %0, i64 24
  %7 = load i64, ptr %6, align 8, !tbaa !101
  %8 = icmp eq i64 %7, 0
  br i1 %8, label %_ZN11duckdb_zstdL25ZSTD_optLdm_maybeAddMatchEPNS_12ZSTD_match_tEPjPKNS_13ZSTD_optLdm_tEj.exit, label %9

9:                                                ; preds = %5
  %10 = getelementptr inbounds nuw i8, ptr %0, i64 8
  %11 = load i64, ptr %10, align 8, !tbaa !102
  %.not = icmp ult i64 %11, %7
  br i1 %.not, label %12, label %_ZN11duckdb_zstdL25ZSTD_optLdm_maybeAddMatchEPNS_12ZSTD_match_tEPjPKNS_13ZSTD_optLdm_tEj.exit

12:                                               ; preds = %9
  %13 = getelementptr inbounds nuw i8, ptr %0, i64 44
  %14 = load i32, ptr %13, align 4, !tbaa !36
  %.not19 = icmp ult i32 %3, %14
  br i1 %.not19, label %34, label %15

15:                                               ; preds = %12
  %16 = icmp ugt i32 %3, %14
  br i1 %16, label %17, label %_ZN11duckdb_zstdL32ZSTD_optLdm_skipRawSeqStoreBytesEPNS_13rawSeqStore_tEm.exit

17:                                               ; preds = %15
  %18 = sub nuw i32 %3, %14
  %19 = getelementptr inbounds nuw i8, ptr %0, i64 16
  %20 = load i64, ptr %19, align 8, !tbaa !105
  %21 = trunc i64 %20 to i32
  %22 = add i32 %18, %21
  %.not28.i = icmp eq i32 %22, 0
  br i1 %.not28.i, label %.critedge.i, label %.lr.ph.i

.lr.ph.i:                                         ; preds = %17, %30
  %23 = phi i64 [ %32, %30 ], [ %11, %17 ]
  %.01829.i = phi i32 [ %31, %30 ], [ %22, %17 ]
  %24 = icmp ult i64 %23, %7
  br i1 %24, label %25, label %.loopexit.i

25:                                               ; preds = %.lr.ph.i
  %26 = load ptr, ptr %0, align 8, !tbaa !123
  %27 = getelementptr inbounds nuw %"struct.duckdb_zstd::rawSeq", ptr %26, i64 %23
  %.sroa.3.0..sroa_idx.i = getelementptr inbounds nuw i8, ptr %27, i64 4
  %.sroa.3.0.copyload.i = load i32, ptr %.sroa.3.0..sroa_idx.i, align 4, !tbaa !26
  %.sroa.5.0..sroa_idx.i = getelementptr inbounds nuw i8, ptr %27, i64 8
  %.sroa.5.0.copyload.i = load i32, ptr %.sroa.5.0..sroa_idx.i, align 4, !tbaa !26
  %28 = add i32 %.sroa.5.0.copyload.i, %.sroa.3.0.copyload.i
  %.not21.i = icmp ult i32 %.01829.i, %28
  br i1 %.not21.i, label %.thread.i, label %30

.thread.i:                                        ; preds = %25
  %29 = zext i32 %.01829.i to i64
  store i64 %29, ptr %19, align 8, !tbaa !105
  br label %.loopexit.i

30:                                               ; preds = %25
  %31 = sub nuw i32 %.01829.i, %28
  %32 = add nuw i64 %23, 1
  store i64 %32, ptr %10, align 8, !tbaa !106
  %.not.i = icmp eq i32 %31, 0
  br i1 %.not.i, label %.critedge.i, label %.lr.ph.i

.loopexit.i:                                      ; preds = %.lr.ph.i, %.thread.i
  %33 = icmp eq i64 %23, %7
  br i1 %33, label %.critedge.i, label %_ZN11duckdb_zstdL32ZSTD_optLdm_skipRawSeqStoreBytesEPNS_13rawSeqStore_tEm.exit

.critedge.i:                                      ; preds = %30, %.loopexit.i, %17
  store i64 0, ptr %19, align 8, !tbaa !105
  br label %_ZN11duckdb_zstdL32ZSTD_optLdm_skipRawSeqStoreBytesEPNS_13rawSeqStore_tEm.exit

_ZN11duckdb_zstdL32ZSTD_optLdm_skipRawSeqStoreBytesEPNS_13rawSeqStore_tEm.exit: ; preds = %.critedge.i, %.loopexit.i, %15
  tail call fastcc void @_ZN11duckdb_zstdL38ZSTD_opt_getNextMatchAndUpdateSeqStoreEPNS_13ZSTD_optLdm_tEjj(ptr noundef %0, i32 noundef %3, i32 noundef %4)
  %.pre = load i32, ptr %13, align 4, !tbaa !36
  br label %34

34:                                               ; preds = %_ZN11duckdb_zstdL32ZSTD_optLdm_skipRawSeqStoreBytesEPNS_13rawSeqStore_tEm.exit, %12
  %35 = phi i32 [ %.pre, %_ZN11duckdb_zstdL32ZSTD_optLdm_skipRawSeqStoreBytesEPNS_13rawSeqStore_tEm.exit ], [ %14, %12 ]
  %36 = getelementptr inbounds nuw i8, ptr %0, i64 40
  %37 = load i32, ptr %36, align 8, !tbaa !35
  %38 = sub i32 %35, %3
  %39 = icmp ult i32 %3, %37
  br i1 %39, label %_ZN11duckdb_zstdL25ZSTD_optLdm_maybeAddMatchEPNS_12ZSTD_match_tEPjPKNS_13ZSTD_optLdm_tEj.exit, label %40

40:                                               ; preds = %34
  %41 = icmp uge i32 %3, %35
  %42 = icmp ult i32 %38, 3
  %or.cond.i = or i1 %41, %42
  br i1 %or.cond.i, label %_ZN11duckdb_zstdL25ZSTD_optLdm_maybeAddMatchEPNS_12ZSTD_match_tEPjPKNS_13ZSTD_optLdm_tEj.exit, label %43

43:                                               ; preds = %40
  %44 = load i32, ptr %2, align 4, !tbaa !26
  %45 = icmp eq i32 %44, 0
  br i1 %45, label %53, label %46

46:                                               ; preds = %43
  %47 = add i32 %44, -1
  %48 = zext i32 %47 to i64
  %49 = getelementptr inbounds nuw %"struct.duckdb_zstd::ZSTD_match_t", ptr %1, i64 %48, i32 1
  %50 = load i32, ptr %49, align 4, !tbaa !45
  %51 = icmp ugt i32 %38, %50
  %52 = icmp ult i32 %44, 4096
  %or.cond25.i = and i1 %52, %51
  br i1 %or.cond25.i, label %53, label %_ZN11duckdb_zstdL25ZSTD_optLdm_maybeAddMatchEPNS_12ZSTD_match_tEPjPKNS_13ZSTD_optLdm_tEj.exit

53:                                               ; preds = %46, %43
  %54 = getelementptr inbounds nuw i8, ptr %0, i64 48
  %55 = load i32, ptr %54, align 8, !tbaa !32
  %56 = add i32 %55, 3
  %57 = zext nneg i32 %44 to i64
  %58 = getelementptr inbounds nuw %"struct.duckdb_zstd::ZSTD_match_t", ptr %1, i64 %57, i32 1
  store i32 %38, ptr %58, align 4, !tbaa !45
  %59 = load i32, ptr %2, align 4, !tbaa !26
  %60 = zext i32 %59 to i64
  %61 = getelementptr inbounds nuw %"struct.duckdb_zstd::ZSTD_match_t", ptr %1, i64 %60
  store i32 %56, ptr %61, align 4, !tbaa !47
  %62 = load i32, ptr %2, align 4, !tbaa !26
  %63 = add i32 %62, 1
  store i32 %63, ptr %2, align 4, !tbaa !26
  br label %_ZN11duckdb_zstdL25ZSTD_optLdm_maybeAddMatchEPNS_12ZSTD_match_tEPjPKNS_13ZSTD_optLdm_tEj.exit

_ZN11duckdb_zstdL25ZSTD_optLdm_maybeAddMatchEPNS_12ZSTD_match_tEPjPKNS_13ZSTD_optLdm_tEj.exit: ; preds = %53, %46, %40, %34, %5, %9
  ret void
}